
Actividad4-3_UART_EEPROM.elf:     file format elf32-avr

Sections:
Idx Name          Size      VMA       LMA       File off  Algn
  0 .data         000000ca  00800100  0000041a  000004ae  2**0
                  CONTENTS, ALLOC, LOAD, DATA
  1 .text         0000041a  00000000  00000000  00000094  2**1
                  CONTENTS, ALLOC, LOAD, READONLY, CODE
  2 .bss          00000002  008001ca  008001ca  00000578  2**0
                  ALLOC
  3 .comment      00000030  00000000  00000000  00000578  2**0
                  CONTENTS, READONLY
  4 .note.gnu.avr.deviceinfo 00000040  00000000  00000000  000005a8  2**2
                  CONTENTS, READONLY
  5 .debug_aranges 00000078  00000000  00000000  000005e8  2**0
                  CONTENTS, READONLY, DEBUGGING
  6 .debug_info   00000bfd  00000000  00000000  00000660  2**0
                  CONTENTS, READONLY, DEBUGGING
  7 .debug_abbrev 00000741  00000000  00000000  0000125d  2**0
                  CONTENTS, READONLY, DEBUGGING
  8 .debug_line   0000060b  00000000  00000000  0000199e  2**0
                  CONTENTS, READONLY, DEBUGGING
  9 .debug_frame  00000128  00000000  00000000  00001fac  2**2
                  CONTENTS, READONLY, DEBUGGING
 10 .debug_str    0000046b  00000000  00000000  000020d4  2**0
                  CONTENTS, READONLY, DEBUGGING
 11 .debug_loc    00000395  00000000  00000000  0000253f  2**0
                  CONTENTS, READONLY, DEBUGGING
 12 .debug_ranges 00000068  00000000  00000000  000028d4  2**0
                  CONTENTS, READONLY, DEBUGGING

Disassembly of section .text:

00000000 <__vectors>:
   0:	0c 94 44 00 	jmp	0x88	; 0x88 <__ctors_end>
   4:	0c 94 61 00 	jmp	0xc2	; 0xc2 <__bad_interrupt>
   8:	0c 94 61 00 	jmp	0xc2	; 0xc2 <__bad_interrupt>
   c:	0c 94 61 00 	jmp	0xc2	; 0xc2 <__bad_interrupt>
  10:	0c 94 61 00 	jmp	0xc2	; 0xc2 <__bad_interrupt>
  14:	0c 94 61 00 	jmp	0xc2	; 0xc2 <__bad_interrupt>
  18:	0c 94 61 00 	jmp	0xc2	; 0xc2 <__bad_interrupt>
  1c:	0c 94 61 00 	jmp	0xc2	; 0xc2 <__bad_interrupt>
  20:	0c 94 61 00 	jmp	0xc2	; 0xc2 <__bad_interrupt>
  24:	0c 94 61 00 	jmp	0xc2	; 0xc2 <__bad_interrupt>
  28:	0c 94 61 00 	jmp	0xc2	; 0xc2 <__bad_interrupt>
  2c:	0c 94 61 00 	jmp	0xc2	; 0xc2 <__bad_interrupt>
  30:	0c 94 61 00 	jmp	0xc2	; 0xc2 <__bad_interrupt>
  34:	0c 94 61 00 	jmp	0xc2	; 0xc2 <__bad_interrupt>
  38:	0c 94 61 00 	jmp	0xc2	; 0xc2 <__bad_interrupt>
  3c:	0c 94 61 00 	jmp	0xc2	; 0xc2 <__bad_interrupt>
  40:	0c 94 61 00 	jmp	0xc2	; 0xc2 <__bad_interrupt>
  44:	0c 94 61 00 	jmp	0xc2	; 0xc2 <__bad_interrupt>
  48:	0c 94 23 01 	jmp	0x246	; 0x246 <__vector_18>
  4c:	0c 94 61 00 	jmp	0xc2	; 0xc2 <__bad_interrupt>
  50:	0c 94 61 00 	jmp	0xc2	; 0xc2 <__bad_interrupt>
  54:	0c 94 61 00 	jmp	0xc2	; 0xc2 <__bad_interrupt>
  58:	0c 94 61 00 	jmp	0xc2	; 0xc2 <__bad_interrupt>
  5c:	0c 94 61 00 	jmp	0xc2	; 0xc2 <__bad_interrupt>
  60:	0c 94 61 00 	jmp	0xc2	; 0xc2 <__bad_interrupt>
  64:	0c 94 61 00 	jmp	0xc2	; 0xc2 <__bad_interrupt>
  68:	44 01       	movw	r8, r8
  6a:	4c 01       	movw	r8, r24
  6c:	54 01       	movw	r10, r8
  6e:	5c 01       	movw	r10, r24
  70:	64 01       	movw	r12, r8
  72:	6c 01       	movw	r12, r24
  74:	74 01       	movw	r14, r8
  76:	7c 01       	movw	r14, r24
  78:	92 01       	movw	r18, r4
  7a:	9a 01       	movw	r18, r20
  7c:	a2 01       	movw	r20, r4
  7e:	aa 01       	movw	r20, r20
  80:	b2 01       	movw	r22, r4
  82:	ba 01       	movw	r22, r20
  84:	c2 01       	movw	r24, r4
  86:	ca 01       	movw	r24, r20

00000088 <__ctors_end>:
  88:	11 24       	eor	r1, r1
  8a:	1f be       	out	0x3f, r1	; 63
  8c:	cf ef       	ldi	r28, 0xFF	; 255
  8e:	d8 e0       	ldi	r29, 0x08	; 8
  90:	de bf       	out	0x3e, r29	; 62
  92:	cd bf       	out	0x3d, r28	; 61

00000094 <__do_copy_data>:
  94:	11 e0       	ldi	r17, 0x01	; 1
  96:	a0 e0       	ldi	r26, 0x00	; 0
  98:	b1 e0       	ldi	r27, 0x01	; 1
  9a:	ea e1       	ldi	r30, 0x1A	; 26
  9c:	f4 e0       	ldi	r31, 0x04	; 4
  9e:	02 c0       	rjmp	.+4      	; 0xa4 <__do_copy_data+0x10>
  a0:	05 90       	lpm	r0, Z+
  a2:	0d 92       	st	X+, r0
  a4:	aa 3c       	cpi	r26, 0xCA	; 202
  a6:	b1 07       	cpc	r27, r17
  a8:	d9 f7       	brne	.-10     	; 0xa0 <__do_copy_data+0xc>

000000aa <__do_clear_bss>:
  aa:	21 e0       	ldi	r18, 0x01	; 1
  ac:	aa ec       	ldi	r26, 0xCA	; 202
  ae:	b1 e0       	ldi	r27, 0x01	; 1
  b0:	01 c0       	rjmp	.+2      	; 0xb4 <.do_clear_bss_start>

000000b2 <.do_clear_bss_loop>:
  b2:	1d 92       	st	X+, r1

000000b4 <.do_clear_bss_start>:
  b4:	ac 3c       	cpi	r26, 0xCC	; 204
  b6:	b2 07       	cpc	r27, r18
  b8:	e1 f7       	brne	.-8      	; 0xb2 <.do_clear_bss_loop>
  ba:	0e 94 d2 01 	call	0x3a4	; 0x3a4 <main>
  be:	0c 94 0b 02 	jmp	0x416	; 0x416 <_exit>

000000c2 <__bad_interrupt>:
  c2:	0c 94 00 00 	jmp	0	; 0x0 <__vectors>

000000c6 <EEPROM_read>:
		break;
		
		buffer[i++] = c;
	}
	buffer[i] = '\0';
}
  c6:	f9 99       	sbic	0x1f, 1	; 31
  c8:	fe cf       	rjmp	.-4      	; 0xc6 <EEPROM_read>
  ca:	92 bd       	out	0x22, r25	; 34
  cc:	81 bd       	out	0x21, r24	; 33
  ce:	8f b3       	in	r24, 0x1f	; 31
  d0:	81 60       	ori	r24, 0x01	; 1
  d2:	8f bb       	out	0x1f, r24	; 31
  d4:	80 b5       	in	r24, 0x20	; 32
  d6:	08 95       	ret

000000d8 <UART_init>:
  d8:	ef 92       	push	r14
  da:	ff 92       	push	r15
  dc:	0f 93       	push	r16
  de:	1f 93       	push	r17
  e0:	e0 ec       	ldi	r30, 0xC0	; 192
  e2:	f0 e0       	ldi	r31, 0x00	; 0
  e4:	a0 81       	ld	r26, Z
  e6:	a0 83       	st	Z, r26
  e8:	a0 81       	ld	r26, Z
  ea:	a0 83       	st	Z, r26
  ec:	e1 ec       	ldi	r30, 0xC1	; 193
  ee:	f0 e0       	ldi	r31, 0x00	; 0
  f0:	a0 81       	ld	r26, Z
  f2:	a8 60       	ori	r26, 0x08	; 8
  f4:	a0 83       	st	Z, r26
  f6:	a0 81       	ld	r26, Z
  f8:	a0 61       	ori	r26, 0x10	; 16
  fa:	a0 83       	st	Z, r26
  fc:	a0 81       	ld	r26, Z
  fe:	00 24       	eor	r0, r0
 100:	16 95       	lsr	r17
 102:	07 95       	ror	r16
 104:	07 94       	ror	r0
 106:	16 95       	lsr	r17
 108:	07 95       	ror	r16
 10a:	07 94       	ror	r0
 10c:	10 2f       	mov	r17, r16
 10e:	00 2d       	mov	r16, r0
 110:	0a 2b       	or	r16, r26
 112:	00 83       	st	Z, r16
 114:	a0 81       	ld	r26, Z
 116:	f6 94       	lsr	r15
 118:	fe 2c       	mov	r15, r14
 11a:	ee 24       	eor	r14, r14
 11c:	f7 94       	ror	r15
 11e:	e7 94       	ror	r14
 120:	ea 2a       	or	r14, r26
 122:	e0 82       	st	Z, r14
 124:	a2 ec       	ldi	r26, 0xC2	; 194
 126:	b0 e0       	ldi	r27, 0x00	; 0
 128:	1c 91       	ld	r17, X
 12a:	1c 93       	st	X, r17
 12c:	1c 91       	ld	r17, X
 12e:	17 7f       	andi	r17, 0xF7	; 247
 130:	1c 93       	st	X, r17
 132:	1c 91       	ld	r17, X
 134:	22 0f       	add	r18, r18
 136:	33 1f       	adc	r19, r19
 138:	22 0f       	add	r18, r18
 13a:	33 1f       	adc	r19, r19
 13c:	22 0f       	add	r18, r18
 13e:	33 1f       	adc	r19, r19
 140:	21 2b       	or	r18, r17
 142:	2c 93       	st	X, r18
 144:	2c 91       	ld	r18, X
 146:	2c 93       	st	X, r18
 148:	90 93 c5 00 	sts	0x00C5, r25	; 0x8000c5 <__TEXT_REGION_LENGTH__+0x7f80c5>
 14c:	80 93 c4 00 	sts	0x00C4, r24	; 0x8000c4 <__TEXT_REGION_LENGTH__+0x7f80c4>
 150:	8c 91       	ld	r24, X
 152:	89 7f       	andi	r24, 0xF9	; 249
 154:	8c 93       	st	X, r24
 156:	80 81       	ld	r24, Z
 158:	8b 7f       	andi	r24, 0xFB	; 251
 15a:	80 83       	st	Z, r24
 15c:	67 30       	cpi	r22, 0x07	; 7
 15e:	71 05       	cpc	r23, r1
 160:	d1 f0       	breq	.+52     	; 0x196 <UART_init+0xbe>
 162:	3c f4       	brge	.+14     	; 0x172 <UART_init+0x9a>
 164:	65 30       	cpi	r22, 0x05	; 5
 166:	71 05       	cpc	r23, r1
 168:	59 f0       	breq	.+22     	; 0x180 <UART_init+0xa8>
 16a:	66 30       	cpi	r22, 0x06	; 6
 16c:	71 05       	cpc	r23, r1
 16e:	69 f0       	breq	.+26     	; 0x18a <UART_init+0xb2>
 170:	28 c0       	rjmp	.+80     	; 0x1c2 <UART_init+0xea>
 172:	68 30       	cpi	r22, 0x08	; 8
 174:	71 05       	cpc	r23, r1
 176:	a9 f0       	breq	.+42     	; 0x1a2 <UART_init+0xca>
 178:	69 30       	cpi	r22, 0x09	; 9
 17a:	71 05       	cpc	r23, r1
 17c:	c1 f0       	breq	.+48     	; 0x1ae <UART_init+0xd6>
 17e:	21 c0       	rjmp	.+66     	; 0x1c2 <UART_init+0xea>
 180:	e2 ec       	ldi	r30, 0xC2	; 194
 182:	f0 e0       	ldi	r31, 0x00	; 0
 184:	80 81       	ld	r24, Z
 186:	80 83       	st	Z, r24
 188:	1c c0       	rjmp	.+56     	; 0x1c2 <UART_init+0xea>
 18a:	e2 ec       	ldi	r30, 0xC2	; 194
 18c:	f0 e0       	ldi	r31, 0x00	; 0
 18e:	80 81       	ld	r24, Z
 190:	82 60       	ori	r24, 0x02	; 2
 192:	80 83       	st	Z, r24
 194:	16 c0       	rjmp	.+44     	; 0x1c2 <UART_init+0xea>
 196:	e2 ec       	ldi	r30, 0xC2	; 194
 198:	f0 e0       	ldi	r31, 0x00	; 0
 19a:	80 81       	ld	r24, Z
 19c:	84 60       	ori	r24, 0x04	; 4
 19e:	80 83       	st	Z, r24
 1a0:	10 c0       	rjmp	.+32     	; 0x1c2 <UART_init+0xea>
 1a2:	e2 ec       	ldi	r30, 0xC2	; 194
 1a4:	f0 e0       	ldi	r31, 0x00	; 0
 1a6:	80 81       	ld	r24, Z
 1a8:	86 60       	ori	r24, 0x06	; 6
 1aa:	80 83       	st	Z, r24
 1ac:	0a c0       	rjmp	.+20     	; 0x1c2 <UART_init+0xea>
 1ae:	e2 ec       	ldi	r30, 0xC2	; 194
 1b0:	f0 e0       	ldi	r31, 0x00	; 0
 1b2:	80 81       	ld	r24, Z
 1b4:	86 60       	ori	r24, 0x06	; 6
 1b6:	80 83       	st	Z, r24
 1b8:	e1 ec       	ldi	r30, 0xC1	; 193
 1ba:	f0 e0       	ldi	r31, 0x00	; 0
 1bc:	80 81       	ld	r24, Z
 1be:	84 60       	ori	r24, 0x04	; 4
 1c0:	80 83       	st	Z, r24
 1c2:	e2 ec       	ldi	r30, 0xC2	; 194
 1c4:	f0 e0       	ldi	r31, 0x00	; 0
 1c6:	80 81       	ld	r24, Z
 1c8:	8f 7c       	andi	r24, 0xCF	; 207
 1ca:	80 83       	st	Z, r24
 1cc:	41 30       	cpi	r20, 0x01	; 1
 1ce:	51 05       	cpc	r21, r1
 1d0:	41 f0       	breq	.+16     	; 0x1e2 <UART_init+0x10a>
 1d2:	42 30       	cpi	r20, 0x02	; 2
 1d4:	51 05       	cpc	r21, r1
 1d6:	59 f0       	breq	.+22     	; 0x1ee <UART_init+0x116>
 1d8:	45 2b       	or	r20, r21
 1da:	79 f4       	brne	.+30     	; 0x1fa <UART_init+0x122>
 1dc:	80 81       	ld	r24, Z
 1de:	80 83       	st	Z, r24
 1e0:	10 c0       	rjmp	.+32     	; 0x202 <UART_init+0x12a>
 1e2:	e2 ec       	ldi	r30, 0xC2	; 194
 1e4:	f0 e0       	ldi	r31, 0x00	; 0
 1e6:	80 81       	ld	r24, Z
 1e8:	80 62       	ori	r24, 0x20	; 32
 1ea:	80 83       	st	Z, r24
 1ec:	0a c0       	rjmp	.+20     	; 0x202 <UART_init+0x12a>
 1ee:	e2 ec       	ldi	r30, 0xC2	; 194
 1f0:	f0 e0       	ldi	r31, 0x00	; 0
 1f2:	80 81       	ld	r24, Z
 1f4:	80 63       	ori	r24, 0x30	; 48
 1f6:	80 83       	st	Z, r24
 1f8:	04 c0       	rjmp	.+8      	; 0x202 <UART_init+0x12a>
 1fa:	e2 ec       	ldi	r30, 0xC2	; 194
 1fc:	f0 e0       	ldi	r31, 0x00	; 0
 1fe:	80 81       	ld	r24, Z
 200:	80 83       	st	Z, r24
 202:	1f 91       	pop	r17
 204:	0f 91       	pop	r16
 206:	ff 90       	pop	r15
 208:	ef 90       	pop	r14
 20a:	08 95       	ret

0000020c <UART_read>:
 20c:	80 91 c0 00 	lds	r24, 0x00C0	; 0x8000c0 <__TEXT_REGION_LENGTH__+0x7f80c0>
 210:	88 23       	and	r24, r24
 212:	1c f4       	brge	.+6      	; 0x21a <UART_read+0xe>
 214:	80 91 c6 00 	lds	r24, 0x00C6	; 0x8000c6 <__TEXT_REGION_LENGTH__+0x7f80c6>
 218:	08 95       	ret
 21a:	80 e0       	ldi	r24, 0x00	; 0
 21c:	08 95       	ret

0000021e <UART_write>:
 21e:	90 91 c0 00 	lds	r25, 0x00C0	; 0x8000c0 <__TEXT_REGION_LENGTH__+0x7f80c0>
 222:	95 ff       	sbrs	r25, 5
 224:	fc cf       	rjmp	.-8      	; 0x21e <UART_write>
 226:	80 93 c6 00 	sts	0x00C6, r24	; 0x8000c6 <__TEXT_REGION_LENGTH__+0x7f80c6>
 22a:	08 95       	ret

0000022c <UART_string>:
 22c:	cf 93       	push	r28
 22e:	df 93       	push	r29
 230:	ec 01       	movw	r28, r24
 232:	03 c0       	rjmp	.+6      	; 0x23a <UART_string+0xe>
 234:	0e 94 0f 01 	call	0x21e	; 0x21e <UART_write>
 238:	21 96       	adiw	r28, 0x01	; 1
 23a:	88 81       	ld	r24, Y
 23c:	81 11       	cpse	r24, r1
 23e:	fa cf       	rjmp	.-12     	; 0x234 <UART_string+0x8>
 240:	df 91       	pop	r29
 242:	cf 91       	pop	r28
 244:	08 95       	ret

00000246 <__vector_18>:
		}
    }
}

ISR(USART_RX_vect)
{
 246:	1f 92       	push	r1
 248:	0f 92       	push	r0
 24a:	0f b6       	in	r0, 0x3f	; 63
 24c:	0f 92       	push	r0
 24e:	11 24       	eor	r1, r1
 250:	8f 93       	push	r24
	if(!RxFlag)
 252:	80 91 cb 01 	lds	r24, 0x01CB	; 0x8001cb <RxFlag>
 256:	81 11       	cpse	r24, r1
 258:	03 c0       	rjmp	.+6      	; 0x260 <__vector_18+0x1a>
	{
		RxFlag = true;
 25a:	81 e0       	ldi	r24, 0x01	; 1
 25c:	80 93 cb 01 	sts	0x01CB, r24	; 0x8001cb <RxFlag>
	}
}
 260:	8f 91       	pop	r24
 262:	0f 90       	pop	r0
 264:	0f be       	out	0x3f, r0	; 63
 266:	0f 90       	pop	r0
 268:	1f 90       	pop	r1
 26a:	18 95       	reti

0000026c <actualiceLeds>:

void actualiceLeds()
{
	
	// encendidos
	switch(dato)
 26c:	e0 91 ca 01 	lds	r30, 0x01CA	; 0x8001ca <__data_end>
 270:	8e 2f       	mov	r24, r30
 272:	90 e0       	ldi	r25, 0x00	; 0
 274:	fc 01       	movw	r30, r24
 276:	f1 97       	sbiw	r30, 0x31	; 49
 278:	e8 30       	cpi	r30, 0x08	; 8
 27a:	f1 05       	cpc	r31, r1
 27c:	08 f0       	brcs	.+2      	; 0x280 <actualiceLeds+0x14>
 27e:	43 c0       	rjmp	.+134    	; 0x306 <actualiceLeds+0x9a>
 280:	ec 5c       	subi	r30, 0xCC	; 204
 282:	ff 4f       	sbci	r31, 0xFF	; 255
 284:	0c 94 05 02 	jmp	0x40a	; 0x40a <__tablejump2__>
	{
		case '1':
			PORTB |= (1<<1);
 288:	85 b1       	in	r24, 0x05	; 5
 28a:	82 60       	ori	r24, 0x02	; 2
 28c:	85 b9       	out	0x05, r24	; 5
			UART_string("LED0 ON \n\r");
 28e:	80 e0       	ldi	r24, 0x00	; 0
 290:	91 e0       	ldi	r25, 0x01	; 1
 292:	0e 94 16 01 	call	0x22c	; 0x22c <UART_string>
			break;
 296:	37 c0       	rjmp	.+110    	; 0x306 <actualiceLeds+0x9a>
			
		case '2':
			PORTB |= (1<<0);
 298:	85 b1       	in	r24, 0x05	; 5
 29a:	81 60       	ori	r24, 0x01	; 1
 29c:	85 b9       	out	0x05, r24	; 5
			UART_string("LED1 ON \n\r");
 29e:	8b e0       	ldi	r24, 0x0B	; 11
 2a0:	91 e0       	ldi	r25, 0x01	; 1
 2a2:	0e 94 16 01 	call	0x22c	; 0x22c <UART_string>
			break;
 2a6:	2f c0       	rjmp	.+94     	; 0x306 <actualiceLeds+0x9a>
			
		case '3':
			PORTD |= (1<<7);
 2a8:	8b b1       	in	r24, 0x0b	; 11
 2aa:	80 68       	ori	r24, 0x80	; 128
 2ac:	8b b9       	out	0x0b, r24	; 11
			UART_string("LED2 ON \n\r");
 2ae:	86 e1       	ldi	r24, 0x16	; 22
 2b0:	91 e0       	ldi	r25, 0x01	; 1
 2b2:	0e 94 16 01 	call	0x22c	; 0x22c <UART_string>
			break;
 2b6:	27 c0       	rjmp	.+78     	; 0x306 <actualiceLeds+0x9a>
			
		case '4':
			PORTD |= (1<<6);
 2b8:	8b b1       	in	r24, 0x0b	; 11
 2ba:	80 64       	ori	r24, 0x40	; 64
 2bc:	8b b9       	out	0x0b, r24	; 11
			UART_string("LED3 ON \n\r");
 2be:	81 e2       	ldi	r24, 0x21	; 33
 2c0:	91 e0       	ldi	r25, 0x01	; 1
 2c2:	0e 94 16 01 	call	0x22c	; 0x22c <UART_string>
			break;
 2c6:	1f c0       	rjmp	.+62     	; 0x306 <actualiceLeds+0x9a>
			
		case '5':
			PORTD |= (1<<5);
 2c8:	8b b1       	in	r24, 0x0b	; 11
 2ca:	80 62       	ori	r24, 0x20	; 32
 2cc:	8b b9       	out	0x0b, r24	; 11
			UART_string("LED4 ON \n\r");
 2ce:	8c e2       	ldi	r24, 0x2C	; 44
 2d0:	91 e0       	ldi	r25, 0x01	; 1
 2d2:	0e 94 16 01 	call	0x22c	; 0x22c <UART_string>
			break;
 2d6:	17 c0       	rjmp	.+46     	; 0x306 <actualiceLeds+0x9a>
			
		case '6':
			PORTD |= (1<<4);
 2d8:	8b b1       	in	r24, 0x0b	; 11
 2da:	80 61       	ori	r24, 0x10	; 16
 2dc:	8b b9       	out	0x0b, r24	; 11
			UART_string("LED5 ON \n\r");
 2de:	87 e3       	ldi	r24, 0x37	; 55
 2e0:	91 e0       	ldi	r25, 0x01	; 1
 2e2:	0e 94 16 01 	call	0x22c	; 0x22c <UART_string>
			break;
 2e6:	0f c0       	rjmp	.+30     	; 0x306 <actualiceLeds+0x9a>
			
		case '7':
			PORTD |= (1<<3);
 2e8:	8b b1       	in	r24, 0x0b	; 11
 2ea:	88 60       	ori	r24, 0x08	; 8
 2ec:	8b b9       	out	0x0b, r24	; 11
			UART_string("LED6 ON \n\r");
 2ee:	82 e4       	ldi	r24, 0x42	; 66
 2f0:	91 e0       	ldi	r25, 0x01	; 1
 2f2:	0e 94 16 01 	call	0x22c	; 0x22c <UART_string>
			break;
 2f6:	07 c0       	rjmp	.+14     	; 0x306 <actualiceLeds+0x9a>
			
		case '8':
			PORTD |= (1<<2);
 2f8:	8b b1       	in	r24, 0x0b	; 11
 2fa:	84 60       	ori	r24, 0x04	; 4
 2fc:	8b b9       	out	0x0b, r24	; 11
			UART_string("LED7 ON \n\r");
 2fe:	8d e4       	ldi	r24, 0x4D	; 77
 300:	91 e0       	ldi	r25, 0x01	; 1
 302:	0e 94 16 01 	call	0x22c	; 0x22c <UART_string>
			break;
	}
	
	// aapagados
	switch(dato)
 306:	e0 91 ca 01 	lds	r30, 0x01CA	; 0x8001ca <__data_end>
 30a:	8e 2f       	mov	r24, r30
 30c:	90 e0       	ldi	r25, 0x00	; 0
 30e:	fc 01       	movw	r30, r24
 310:	e1 54       	subi	r30, 0x41	; 65
 312:	f1 09       	sbc	r31, r1
 314:	e8 30       	cpi	r30, 0x08	; 8
 316:	f1 05       	cpc	r31, r1
 318:	08 f0       	brcs	.+2      	; 0x31c <actualiceLeds+0xb0>
 31a:	43 c0       	rjmp	.+134    	; 0x3a2 <actualiceLeds+0x136>
 31c:	e4 5c       	subi	r30, 0xC4	; 196
 31e:	ff 4f       	sbci	r31, 0xFF	; 255
 320:	0c 94 05 02 	jmp	0x40a	; 0x40a <__tablejump2__>
	{
		case 'A':
		PORTB &= ~(1<<1);
 324:	85 b1       	in	r24, 0x05	; 5
 326:	8d 7f       	andi	r24, 0xFD	; 253
 328:	85 b9       	out	0x05, r24	; 5
		UART_string("LED0 OFF \n\r");
 32a:	88 e5       	ldi	r24, 0x58	; 88
 32c:	91 e0       	ldi	r25, 0x01	; 1
 32e:	0e 94 16 01 	call	0x22c	; 0x22c <UART_string>
		break;
 332:	08 95       	ret
		
		case 'B':
		PORTB &= ~(1<<0);
 334:	85 b1       	in	r24, 0x05	; 5
 336:	8e 7f       	andi	r24, 0xFE	; 254
 338:	85 b9       	out	0x05, r24	; 5
		UART_string("LED1 OFF \n\r");
 33a:	84 e6       	ldi	r24, 0x64	; 100
 33c:	91 e0       	ldi	r25, 0x01	; 1
 33e:	0e 94 16 01 	call	0x22c	; 0x22c <UART_string>
		break;
 342:	08 95       	ret
		
		case 'C':
		PORTD &= ~(1<<7);
 344:	8b b1       	in	r24, 0x0b	; 11
 346:	8f 77       	andi	r24, 0x7F	; 127
 348:	8b b9       	out	0x0b, r24	; 11
		UART_string("LED2 OFF \n\r");
 34a:	80 e7       	ldi	r24, 0x70	; 112
 34c:	91 e0       	ldi	r25, 0x01	; 1
 34e:	0e 94 16 01 	call	0x22c	; 0x22c <UART_string>
		break;
 352:	08 95       	ret
		
		case 'D':
		PORTD &= ~(1<<6);
 354:	8b b1       	in	r24, 0x0b	; 11
 356:	8f 7b       	andi	r24, 0xBF	; 191
 358:	8b b9       	out	0x0b, r24	; 11
		UART_string("LED3 OFF \n\r");
 35a:	8c e7       	ldi	r24, 0x7C	; 124
 35c:	91 e0       	ldi	r25, 0x01	; 1
 35e:	0e 94 16 01 	call	0x22c	; 0x22c <UART_string>
		break;
 362:	08 95       	ret
		
		case 'E':
		PORTD &= ~(1<<5);
 364:	8b b1       	in	r24, 0x0b	; 11
 366:	8f 7d       	andi	r24, 0xDF	; 223
 368:	8b b9       	out	0x0b, r24	; 11
		UART_string("LED4 ON \n\r");
 36a:	8c e2       	ldi	r24, 0x2C	; 44
 36c:	91 e0       	ldi	r25, 0x01	; 1
 36e:	0e 94 16 01 	call	0x22c	; 0x22c <UART_string>
		break;
 372:	08 95       	ret
		
		case 'F':
		PORTD &= ~(1<<4);
 374:	8b b1       	in	r24, 0x0b	; 11
 376:	8f 7e       	andi	r24, 0xEF	; 239
 378:	8b b9       	out	0x0b, r24	; 11
		UART_string("LED5 ON \n\r");
 37a:	87 e3       	ldi	r24, 0x37	; 55
 37c:	91 e0       	ldi	r25, 0x01	; 1
 37e:	0e 94 16 01 	call	0x22c	; 0x22c <UART_string>
		break;
 382:	08 95       	ret
		
		case 'G':
		PORTD &= ~(1<<3);
 384:	8b b1       	in	r24, 0x0b	; 11
 386:	87 7f       	andi	r24, 0xF7	; 247
 388:	8b b9       	out	0x0b, r24	; 11
		UART_string("LED6 ON \n\r");
 38a:	82 e4       	ldi	r24, 0x42	; 66
 38c:	91 e0       	ldi	r25, 0x01	; 1
 38e:	0e 94 16 01 	call	0x22c	; 0x22c <UART_string>
		break;
 392:	08 95       	ret
		
		case 'H':
		PORTD &= ~(1<<2);
 394:	8b b1       	in	r24, 0x0b	; 11
 396:	8b 7f       	andi	r24, 0xFB	; 251
 398:	8b b9       	out	0x0b, r24	; 11
		UART_string("LED7 ON \n\r");
 39a:	8d e4       	ldi	r24, 0x4D	; 77
 39c:	91 e0       	ldi	r25, 0x01	; 1
 39e:	0e 94 16 01 	call	0x22c	; 0x22c <UART_string>
 3a2:	08 95       	ret

000003a4 <main>:

void actualiceLeds();

int main(void)
{
	UART_init(103,8,DISABLED,MONOBIT,DISABLED,ENABLED);
 3a4:	ee 24       	eor	r14, r14
 3a6:	e3 94       	inc	r14
 3a8:	f1 2c       	mov	r15, r1
 3aa:	00 e0       	ldi	r16, 0x00	; 0
 3ac:	10 e0       	ldi	r17, 0x00	; 0
 3ae:	20 e0       	ldi	r18, 0x00	; 0
 3b0:	30 e0       	ldi	r19, 0x00	; 0
 3b2:	40 e0       	ldi	r20, 0x00	; 0
 3b4:	50 e0       	ldi	r21, 0x00	; 0
 3b6:	68 e0       	ldi	r22, 0x08	; 8
 3b8:	70 e0       	ldi	r23, 0x00	; 0
 3ba:	87 e6       	ldi	r24, 0x67	; 103
 3bc:	90 e0       	ldi	r25, 0x00	; 0
 3be:	0e 94 6c 00 	call	0xd8	; 0xd8 <UART_init>
	DDRD |= 0b11111100; // D7 a D2 output
 3c2:	8a b1       	in	r24, 0x0a	; 10
 3c4:	8c 6f       	ori	r24, 0xFC	; 252
 3c6:	8a b9       	out	0x0a, r24	; 10
	DDRB |= 0b00000011; // B1 y B0 output
 3c8:	84 b1       	in	r24, 0x04	; 4
 3ca:	83 60       	ori	r24, 0x03	; 3
 3cc:	84 b9       	out	0x04, r24	; 4
	sei();
 3ce:	78 94       	sei
	
	dato = EEPROM_read(0);
 3d0:	80 e0       	ldi	r24, 0x00	; 0
 3d2:	90 e0       	ldi	r25, 0x00	; 0
 3d4:	0e 94 63 00 	call	0xc6	; 0xc6 <EEPROM_read>
 3d8:	80 93 ca 01 	sts	0x01CA, r24	; 0x8001ca <__data_end>
	actualiceLeds();
 3dc:	0e 94 36 01 	call	0x26c	; 0x26c <actualiceLeds>
	
	UART_string("Numbers 1-8 will turn on LEDs\n\r");
 3e0:	88 e8       	ldi	r24, 0x88	; 136
 3e2:	91 e0       	ldi	r25, 0x01	; 1
 3e4:	0e 94 16 01 	call	0x22c	; 0x22c <UART_string>
	UART_string("Letter A-H will turn off LEDs \n\r");
 3e8:	88 ea       	ldi	r24, 0xA8	; 168
 3ea:	91 e0       	ldi	r25, 0x01	; 1
 3ec:	0e 94 16 01 	call	0x22c	; 0x22c <UART_string>
	
	
    while (1) 
    {
		if(RxFlag)
 3f0:	80 91 cb 01 	lds	r24, 0x01CB	; 0x8001cb <RxFlag>
 3f4:	88 23       	and	r24, r24
 3f6:	e1 f3       	breq	.-8      	; 0x3f0 <main+0x4c>
		{
			dato = UART_read();
 3f8:	0e 94 06 01 	call	0x20c	; 0x20c <UART_read>
 3fc:	80 93 ca 01 	sts	0x01CA, r24	; 0x8001ca <__data_end>
			RxFlag = false;
 400:	10 92 cb 01 	sts	0x01CB, r1	; 0x8001cb <RxFlag>
			actualiceLeds();
 404:	0e 94 36 01 	call	0x26c	; 0x26c <actualiceLeds>
 408:	f3 cf       	rjmp	.-26     	; 0x3f0 <main+0x4c>

0000040a <__tablejump2__>:
 40a:	ee 0f       	add	r30, r30
 40c:	ff 1f       	adc	r31, r31
 40e:	05 90       	lpm	r0, Z+
 410:	f4 91       	lpm	r31, Z
 412:	e0 2d       	mov	r30, r0
 414:	09 94       	ijmp

00000416 <_exit>:
 416:	f8 94       	cli

00000418 <__stop_program>:
 418:	ff cf       	rjmp	.-2      	; 0x418 <__stop_program>
